target datalayout = "e-m:e-p270:32:32-p271:32:32-p272:64:64-i64:64-i128:128-f80:128-n8:16:32:64-S128"
target triple = "x86_64-pc-linux-gnu"

%struct._proto_node = type { ptr, ptr, ptr, ptr, ptr, ptr, ptr }
%struct.field_info = type { ptr, i32, i32, i32, i32, i32, i32, ptr, ptr, ptr, i32, i32 }
%struct._packet_info = type { ptr, ptr, i32, i32, %struct.nstime_t, %struct.nstime_t, %struct.nstime_t, i8, ptr, ptr, ptr, ptr, %struct._address, %struct._address, %struct._address, %struct._address, %struct._address, %struct._address, i32, ptr, i8, [3 x i8], %struct.anon, i32, i32, i32, i32, ptr, i8, ptr, ptr, i16, i16, i32, i32, i16, i32, i32, ptr, ptr, ptr, i8, i8, i16, i16, i16, i32, i16, i16, ptr, ptr, ptr, ptr, ptr, i32, i32 }
%struct.nstime_t = type { i64, i32 }
%struct._address = type { i32, i32, ptr, ptr }
%struct.anon = type { i8, [3 x i8] }
%struct.nvme_cmd_ctx = type { i32, i32, i32, [16 x i32], i32, %struct.nstime_t, %struct.nstime_t, i32, i8, %union.anon, i8 }
%union.anon = type { %struct.anon.1 }
%struct.anon.1 = type { i32, i32, i32, i32, i16, i8, i8, i64, i8 }
%struct.anon.3 = type { %union.anon.4, i8 }
%union.anon.4 = type { %struct.anon.6 }
%struct.anon.6 = type { i16 }
%struct.anon.5 = type { i8 }

@.str.2 = private unnamed_addr constant [8 x i8] c"%.3f ms\00", align 1
@ett_data = internal global i32 0, align 4
@.str.5 = private unnamed_addr constant [3 x i8] c"| \00", align 1
@.str.7 = private unnamed_addr constant [16 x i8] c"Unknown Command\00", align 1
@.str.18 = private unnamed_addr constant [17 x i8] c"Unknown Property\00", align 1
@hf_nvmeof_cqe = internal global i32 0, align 4
@.str.21 = private unnamed_addr constant [18 x i8] c"NVMeOF CQE for %s\00", align 1
@.str.22 = private unnamed_addr constant [30 x i8] c"NVMeOF CQE for Property %s %s\00", align 1
@.str.23 = private unnamed_addr constant [4 x i8] c"Get\00", align 1
@.str.24 = private unnamed_addr constant [4 x i8] c"Set\00", align 1
@.str.25 = private unnamed_addr constant [15 x i8] c" (For Cmd: %s)\00", align 1
@.str.26 = private unnamed_addr constant [12 x i8] c"Unknown Cmd\00", align 1
@hf_nvmeof_cmd_pkt = hidden global i32 0, align 4
@hf_nvmeof_cmd_latency = internal global i32 0, align 4
@hf_nvmeof_cqe_sts = internal global i32 0, align 4
@hf_nvmeof_cqe_connect_cntlid = internal global i32 0, align 4
@hf_nvmeof_cqe_connect_authreq = internal global i32 0, align 4
@hf_nvmeof_cqe_connect_rsvd = internal global i32 0, align 4
@hf_nvmeof_cqe_prop_set_rsvd = internal global i32 0, align 4

; Function Attrs: null_pointer_is_valid sspstrong uwtable
define internal void @dissect_nvmeof_status_prop_get(ptr noundef %0, ptr noundef %1, ptr noundef %2, i32 noundef %3) #0 {
  %5 = alloca ptr, align 8
  %6 = alloca ptr, align 8
  %7 = alloca ptr, align 8
  %8 = alloca i32, align 4
  store ptr %0, ptr %5, align 8
  store ptr %1, ptr %6, align 8
  store ptr %2, ptr %7, align 8
  store i32 %3, ptr %8, align 4
  %9 = load ptr, ptr %5, align 8
  %10 = load ptr, ptr %6, align 8
  %11 = load i32, ptr %8, align 4
  %12 = load ptr, ptr %7, align 8
  %13 = getelementptr inbounds nuw %struct.nvme_cmd_ctx, ptr %12, i32 0, i32 9
  %14 = getelementptr inbounds nuw %struct.anon.3, ptr %13, i32 0, i32 0
  %15 = getelementptr inbounds nuw %struct.anon.5, ptr %14, i32 0, i32 0
  %16 = load i8, ptr %15, align 8
  %17 = zext i8 %16 to i32
  call void @dissect_nvmeof_fabric_prop_data(ptr noundef %9, ptr noundef %10, i32 noundef %11, i32 noundef %17, i8 noundef zeroext 1)
  ret void
}

; Function Attrs: inlinehint nounwind null_pointer_is_valid sspstrong uwtable
define internal void @proto_item_set_generated(ptr noundef %0) #3 {
  %2 = alloca ptr, align 8
  store ptr %0, ptr %2, align 8
  %3 = load ptr, ptr %2, align 8
  %4 = icmp ne ptr %3, null
  br i1 %4, label %5, label %24

5:                                                ; preds = %1
  br label %6

6:                                                ; preds = %5
  %7 = load ptr, ptr %2, align 8
  %8 = getelementptr inbounds nuw %struct._proto_node, ptr %7, i32 0, i32 5
  %9 = load ptr, ptr %8, align 8
  %10 = icmp ne ptr %9, null
  br i1 %10, label %11, label %22

11:                                               ; preds = %6
  %12 = load ptr, ptr %2, align 8
  %13 = getelementptr inbounds nuw %struct._proto_node, ptr %12, i32 0, i32 5
  %14 = load ptr, ptr %13, align 8
  %15 = getelementptr inbounds nuw %struct.field_info, ptr %14, i32 0, i32 6
  %16 = load i32, ptr %15, align 4
  %17 = or i32 %16, 2
  %18 = load ptr, ptr %2, align 8
  %19 = getelementptr inbounds nuw %struct._proto_node, ptr %18, i32 0, i32 5
  %20 = load ptr, ptr %19, align 8
  %21 = getelementptr inbounds nuw %struct.field_info, ptr %20, i32 0, i32 6
  store i32 %17, ptr %21, align 4
  br label %22

22:                                               ; preds = %11, %6
  br label %23

23:                                               ; preds = %22
  br label %24

24:                                               ; preds = %23, %1
  ret void
}

; Function Attrs: null_pointer_is_valid sspstrong uwtable
define hidden void @nvme_publish_link(ptr noundef %0, ptr noundef %1, i32 noundef %2, i32 noundef %3, i1 noundef zeroext %4) #0 {
  %6 = alloca ptr, align 8
  %7 = alloca ptr, align 8
  %8 = alloca i32, align 4
  %9 = alloca i32, align 4
  %10 = alloca i8, align 1
  %11 = alloca ptr, align 8
  store ptr %0, ptr %6, align 8
  store ptr %1, ptr %7, align 8
  store i32 %2, ptr %8, align 4
  store i32 %3, ptr %9, align 4
  %12 = zext i1 %4 to i8
  store i8 %12, ptr %10, align 1
  call void @llvm.lifetime.start.p0(i64 8, ptr %11) #9
  %13 = load i32, ptr %9, align 4
  %14 = icmp ne i32 %13, 0
  br i1 %14, label %18, label %15

15:                                               ; preds = %5
  %16 = load i8, ptr %10, align 1, !range !6, !noundef !7
  %17 = trunc i8 %16 to i1
  br i1 %17, label %18, label %25

18:                                               ; preds = %15, %5
  %19 = load ptr, ptr %6, align 8
  %20 = load i32, ptr %8, align 4
  %21 = load ptr, ptr %7, align 8
  %22 = load i32, ptr %9, align 4
  %23 = call ptr @proto_tree_add_uint(ptr noundef %19, i32 noundef %20, ptr noundef %21, i32 noundef 0, i32 noundef 0, i32 noundef %22)
  store ptr %23, ptr %11, align 8
  %24 = load ptr, ptr %11, align 8
  call void @proto_item_set_generated(ptr noundef %24)
  br label %25

25:                                               ; preds = %18, %15
  call void @llvm.lifetime.end.p0(i64 8, ptr %11) #9
  ret void
}

; Function Attrs: null_pointer_is_valid sspstrong uwtable
define internal void @dissect_nvmeof_cqe_status_8B(ptr noundef %0, ptr noundef %1, ptr noundef %2, i32 noundef %3) #0 {
  %5 = alloca ptr, align 8
  %6 = alloca ptr, align 8
  %7 = alloca ptr, align 8
  %8 = alloca i32, align 4
  store ptr %0, ptr %5, align 8
  store ptr %1, ptr %6, align 8
  store ptr %2, ptr %7, align 8
  store i32 %3, ptr %8, align 4
  %9 = load ptr, ptr %7, align 8
  %10 = getelementptr inbounds nuw %struct.nvme_cmd_ctx, ptr %9, i32 0, i32 9
  %11 = getelementptr inbounds nuw %struct.anon.3, ptr %10, i32 0, i32 1
  %12 = load i8, ptr %11, align 2
  %13 = zext i8 %12 to i32
  switch i32 %13, label %45 [
    i32 1, label %14
    i32 4, label %33
    i32 0, label %38
  ]

14:                                               ; preds = %4
  %15 = load ptr, ptr %5, align 8
  %16 = load i32, ptr @hf_nvmeof_cqe_connect_cntlid, align 4
  %17 = load ptr, ptr %6, align 8
  %18 = load i32, ptr %8, align 4
  %19 = add i32 0, %18
  %20 = call ptr @proto_tree_add_item(ptr noundef %15, i32 noundef %16, ptr noundef %17, i32 noundef %19, i32 noundef 2, i32 noundef -2147483648)
  %21 = load ptr, ptr %5, align 8
  %22 = load i32, ptr @hf_nvmeof_cqe_connect_authreq, align 4
  %23 = load ptr, ptr %6, align 8
  %24 = load i32, ptr %8, align 4
  %25 = add i32 2, %24
  %26 = call ptr @proto_tree_add_item(ptr noundef %21, i32 noundef %22, ptr noundef %23, i32 noundef %25, i32 noundef 2, i32 noundef -2147483648)
  %27 = load ptr, ptr %5, align 8
  %28 = load i32, ptr @hf_nvmeof_cqe_connect_rsvd, align 4
  %29 = load ptr, ptr %6, align 8
  %30 = load i32, ptr %8, align 4
  %31 = add i32 4, %30
  %32 = call ptr @proto_tree_add_item(ptr noundef %27, i32 noundef %28, ptr noundef %29, i32 noundef %31, i32 noundef 4, i32 noundef 0)
  br label %52

33:                                               ; preds = %4
  %34 = load ptr, ptr %5, align 8
  %35 = load ptr, ptr %6, align 8
  %36 = load ptr, ptr %7, align 8
  %37 = load i32, ptr %8, align 4
  call void @dissect_nvmeof_status_prop_get(ptr noundef %34, ptr noundef %35, ptr noundef %36, i32 noundef %37)
  br label %52

38:                                               ; preds = %4
  %39 = load ptr, ptr %5, align 8
  %40 = load i32, ptr @hf_nvmeof_cqe_prop_set_rsvd, align 4
  %41 = load ptr, ptr %6, align 8
  %42 = load i32, ptr %8, align 4
  %43 = add i32 0, %42
  %44 = call ptr @proto_tree_add_item(ptr noundef %39, i32 noundef %40, ptr noundef %41, i32 noundef %43, i32 noundef 8, i32 noundef 0)
  br label %52

45:                                               ; preds = %4
  %46 = load ptr, ptr %5, align 8
  %47 = load i32, ptr @hf_nvmeof_cqe_sts, align 4
  %48 = load ptr, ptr %6, align 8
  %49 = load i32, ptr %8, align 4
  %50 = add i32 0, %49
  %51 = call ptr @proto_tree_add_item(ptr noundef %46, i32 noundef %47, ptr noundef %48, i32 noundef %50, i32 noundef 8, i32 noundef -2147483648)
  br label %52

52:                                               ; preds = %45, %38, %33, %14
  ret void
}

; Function Attrs: null_pointer_is_valid sspstrong uwtable
define hidden void @nvme_publish_cmd_latency(ptr noundef %0, ptr noundef %1, i32 noundef %2) #0 {
  %4 = alloca ptr, align 8
  %5 = alloca ptr, align 8
  %6 = alloca i32, align 4
  %7 = alloca ptr, align 8
  %8 = alloca %struct.nstime_t, align 8
  %9 = alloca double, align 8
  store ptr %0, ptr %4, align 8
  store ptr %1, ptr %5, align 8
  store i32 %2, ptr %6, align 4
  call void @llvm.lifetime.start.p0(i64 8, ptr %7) #9
  call void @llvm.lifetime.start.p0(i64 16, ptr %8) #9
  call void @llvm.lifetime.start.p0(i64 8, ptr %9) #9
  %10 = load ptr, ptr %5, align 8
  %11 = getelementptr inbounds nuw %struct.nvme_cmd_ctx, ptr %10, i32 0, i32 6
  %12 = load ptr, ptr %5, align 8
  %13 = getelementptr inbounds nuw %struct.nvme_cmd_ctx, ptr %12, i32 0, i32 5
  call void @nstime_delta(ptr noundef %8, ptr noundef %11, ptr noundef %13)
  %14 = call double @nstime_to_msec(ptr noundef %8)
  store double %14, ptr %9, align 8
  %15 = load ptr, ptr %4, align 8
  %16 = load i32, ptr %6, align 4
  %17 = load double, ptr %9, align 8
  %18 = load double, ptr %9, align 8
  %19 = call ptr (ptr, i32, ptr, i32, i32, double, ptr, ...) @proto_tree_add_double_format_value(ptr noundef %15, i32 noundef %16, ptr noundef null, i32 noundef 0, i32 noundef 0, double noundef %17, ptr noundef @.str.2, double noundef %18)
  store ptr %19, ptr %7, align 8
  %20 = load ptr, ptr %7, align 8
  call void @proto_item_set_generated(ptr noundef %20)
  call void @llvm.lifetime.end.p0(i64 8, ptr %9) #9
  call void @llvm.lifetime.end.p0(i64 16, ptr %8) #9
  call void @llvm.lifetime.end.p0(i64 8, ptr %7) #9
  ret void
}

; Function Attrs: null_pointer_is_valid sspstrong uwtable
define hidden void @nvme_publish_to_cmd_link(ptr noundef %0, ptr noundef %1, i32 noundef %2, ptr noundef %3) #0 {
  %5 = alloca ptr, align 8
  %6 = alloca ptr, align 8
  %7 = alloca i32, align 4
  %8 = alloca ptr, align 8
  store ptr %0, ptr %5, align 8
  store ptr %1, ptr %6, align 8
  store i32 %2, ptr %7, align 4
  store ptr %3, ptr %8, align 8
  %9 = load ptr, ptr %5, align 8
  %10 = load ptr, ptr %6, align 8
  %11 = load i32, ptr %7, align 4
  %12 = load ptr, ptr %8, align 8
  %13 = getelementptr inbounds nuw %struct.nvme_cmd_ctx, ptr %12, i32 0, i32 0
  %14 = load i32, ptr %13, align 8
  call void @nvme_publish_link(ptr noundef %9, ptr noundef %10, i32 noundef %11, i32 noundef %14, i1 noundef zeroext true)
  ret void
}

; Function Attrs: null_pointer_is_valid sspstrong uwtable
define hidden void @dissect_nvmeof_fabric_cqe(ptr noundef %0, ptr noundef %1, ptr noundef %2, ptr noundef %3, i32 noundef %4) #0 {
  %6 = alloca ptr, align 8
  %7 = alloca ptr, align 8
  %8 = alloca ptr, align 8
  %9 = alloca ptr, align 8
  %10 = alloca i32, align 4
  %11 = alloca ptr, align 8
  %12 = alloca ptr, align 8
  %13 = alloca i8, align 1
  store ptr %0, ptr %6, align 8
  store ptr %1, ptr %7, align 8
  store ptr %2, ptr %8, align 8
  store ptr %3, ptr %9, align 8
  store i32 %4, ptr %10, align 4
  call void @llvm.lifetime.start.p0(i64 8, ptr %11) #9
  call void @llvm.lifetime.start.p0(i64 8, ptr %12) #9
  call void @llvm.lifetime.start.p0(i64 1, ptr %13) #9
  %14 = load ptr, ptr %9, align 8
  %15 = getelementptr inbounds nuw %struct.nvme_cmd_ctx, ptr %14, i32 0, i32 9
  %16 = getelementptr inbounds nuw %struct.anon.3, ptr %15, i32 0, i32 1
  %17 = load i8, ptr %16, align 2
  store i8 %17, ptr %13, align 1
  %18 = load ptr, ptr %8, align 8
  %19 = load i32, ptr @hf_nvmeof_cqe, align 4
  %20 = load ptr, ptr %6, align 8
  %21 = load i32, ptr %10, align 4
  %22 = add i32 0, %21
  %23 = call ptr @proto_tree_add_item(ptr noundef %18, i32 noundef %19, ptr noundef %20, i32 noundef %22, i32 noundef 16, i32 noundef 0)
  store ptr %23, ptr %12, align 8
  %24 = load i8, ptr %13, align 1
  %25 = zext i8 %24 to i32
  %26 = icmp ne i32 %25, 4
  br i1 %26, label %27, label %38

27:                                               ; preds = %5
  %28 = load i8, ptr %13, align 1
  %29 = zext i8 %28 to i32
  %30 = icmp ne i32 %29, 0
  br i1 %30, label %31, label %38

31:                                               ; preds = %27
  %32 = load ptr, ptr %7, align 8
  %33 = getelementptr inbounds nuw %struct._packet_info, ptr %32, i32 0, i32 1
  %34 = load ptr, ptr %33, align 8
  %35 = load i8, ptr %13, align 1
  %36 = zext i8 %35 to i32
  %37 = call ptr @val_to_str_const(i32 noundef %36, ptr noundef @fctype_tbl, ptr noundef @.str.7)
  call void (ptr, i32, ptr, ptr, ...) @col_append_sep_fstr(ptr noundef %34, i32 noundef 25, ptr noundef @.str.5, ptr noundef @.str.21, ptr noundef %37)
  br label %53

38:                                               ; preds = %27, %5
  %39 = load ptr, ptr %7, align 8
  %40 = getelementptr inbounds nuw %struct._packet_info, ptr %39, i32 0, i32 1
  %41 = load ptr, ptr %40, align 8
  %42 = load i8, ptr %13, align 1
  %43 = zext i8 %42 to i32
  %44 = icmp eq i32 %43, 4
  %45 = select i1 %44, ptr @.str.23, ptr @.str.24
  %46 = load ptr, ptr %9, align 8
  %47 = getelementptr inbounds nuw %struct.nvme_cmd_ctx, ptr %46, i32 0, i32 9
  %48 = getelementptr inbounds nuw %struct.anon.3, ptr %47, i32 0, i32 0
  %49 = getelementptr inbounds nuw %struct.anon.5, ptr %48, i32 0, i32 0
  %50 = load i8, ptr %49, align 8
  %51 = zext i8 %50 to i32
  %52 = call ptr @val_to_str_const(i32 noundef %51, ptr noundef @prop_offset_tbl, ptr noundef @.str.18)
  call void (ptr, i32, ptr, ptr, ...) @col_append_sep_fstr(ptr noundef %41, i32 noundef 25, ptr noundef @.str.5, ptr noundef @.str.22, ptr noundef %45, ptr noundef %52)
  br label %53

53:                                               ; preds = %38, %31
  %54 = load ptr, ptr %12, align 8
  %55 = load i8, ptr %13, align 1
  %56 = zext i8 %55 to i32
  %57 = call ptr @val_to_str_const(i32 noundef %56, ptr noundef @fctype_tbl, ptr noundef @.str.26)
  call void (ptr, ptr, ...) @proto_item_append_text(ptr noundef %54, ptr noundef @.str.25, ptr noundef %57)
  %58 = load ptr, ptr %12, align 8
  %59 = load i32, ptr @ett_data, align 4
  %60 = call ptr @proto_item_add_subtree(ptr noundef %58, i32 noundef %59)
  store ptr %60, ptr %11, align 8
  %61 = load ptr, ptr %11, align 8
  %62 = load ptr, ptr %6, align 8
  %63 = load i32, ptr @hf_nvmeof_cmd_pkt, align 4
  %64 = load ptr, ptr %9, align 8
  call void @nvme_publish_to_cmd_link(ptr noundef %61, ptr noundef %62, i32 noundef %63, ptr noundef %64)
  %65 = load ptr, ptr %11, align 8
  %66 = load ptr, ptr %9, align 8
  %67 = load i32, ptr @hf_nvmeof_cmd_latency, align 4
  call void @nvme_publish_cmd_latency(ptr noundef %65, ptr noundef %66, i32 noundef %67)
  %68 = load ptr, ptr %11, align 8
  %69 = load ptr, ptr %6, align 8
  %70 = load ptr, ptr %9, align 8
  %71 = load i32, ptr %10, align 4
  call void @dissect_nvmeof_cqe_status_8B(ptr noundef %68, ptr noundef %69, ptr noundef %70, i32 noundef %71)
  %72 = load ptr, ptr %6, align 8
  %73 = load ptr, ptr %11, align 8
  %74 = load i32, ptr %10, align 4
  call void @dissect_nvme_cqe_common(ptr noundef %72, ptr noundef %73, i32 noundef %74, i1 noundef zeroext true)
  call void @llvm.lifetime.end.p0(i64 1, ptr %13) #9
  call void @llvm.lifetime.end.p0(i64 8, ptr %12) #9
  call void @llvm.lifetime.end.p0(i64 8, ptr %11) #9
  ret void
}