; Function Attrs: null_pointer_is_valid sspstrong uwtable
define hidden void @dissect_nvmeof_fabric_cqe(ptr noundef %0, ptr noundef readonly captures(none) %1, ptr noundef %2, ptr noundef %3, i32 noundef %4) local_unnamed_addr #0 {
  %6 = alloca %struct.nstime_t, align 8
  %7 = getelementptr inbounds nuw i8, ptr %3, i64 122
  %8 = load i8, ptr %7, align 2
  %9 = load i32, ptr @hf_nvmeof_cqe, align 4
  %10 = tail call ptr @proto_tree_add_item(ptr noundef %2, i32 noundef %9, ptr noundef %0, i32 noundef %4, i32 noundef 16, i32 noundef 0)
  %11 = zext i8 %8 to i32
  %12 = and i8 %8, -5
  %or.cond.not = icmp eq i8 %12, 0
  br i1 %or.cond.not, label %17, label %13

13:                                               ; preds = %5
  %14 = getelementptr inbounds nuw i8, ptr %1, i64 8
  %15 = load ptr, ptr %14, align 8
  %16 = tail call ptr @val_to_str_const(i32 noundef %11, ptr noundef nonnull @fctype_tbl, ptr noundef nonnull @.str.7)
  tail call void (ptr, i32, ptr, ptr, ...) @col_append_sep_fstr(ptr noundef %15, i32 noundef 25, ptr noundef nonnull @.str.5, ptr noundef nonnull @.str.21, ptr noundef %16)
  br label %26

17:                                               ; preds = %5
  %18 = getelementptr inbounds nuw i8, ptr %3, i64 120
  %19 = getelementptr inbounds nuw i8, ptr %1, i64 8
  %20 = load ptr, ptr %19, align 8
  %21 = icmp eq i8 %8, 4
  %22 = select i1 %21, ptr @.str.23, ptr @.str.24
  %23 = load i8, ptr %18, align 8
  %24 = zext i8 %23 to i32
  %25 = tail call ptr @val_to_str_const(i32 noundef %24, ptr noundef nonnull @prop_offset_tbl, ptr noundef nonnull @.str.18)
  tail call void (ptr, i32, ptr, ptr, ...) @col_append_sep_fstr(ptr noundef %20, i32 noundef 25, ptr noundef nonnull @.str.5, ptr noundef nonnull @.str.22, ptr noundef nonnull %22, ptr noundef %25)
  br label %26

26:                                               ; preds = %17, %13
  %27 = tail call ptr @val_to_str_const(i32 noundef %11, ptr noundef nonnull @fctype_tbl, ptr noundef nonnull @.str.26)
  tail call void (ptr, ptr, ...) @proto_item_append_text(ptr noundef %10, ptr noundef nonnull @.str.25, ptr noundef %27)
  %28 = load i32, ptr @ett_data, align 4
  %29 = tail call ptr @proto_item_add_subtree(ptr noundef %10, i32 noundef %28)
  %30 = load i32, ptr @hf_nvmeof_cmd_pkt, align 4
  %31 = load i32, ptr %3, align 8
  %32 = tail call ptr @proto_tree_add_uint(ptr noundef %29, i32 noundef %30, ptr noundef %0, i32 noundef 0, i32 noundef 0, i32 noundef %31)
  %.not.i.i.i = icmp eq ptr %32, null
  br i1 %.not.i.i.i, label %nvme_publish_to_cmd_link.exit, label %33

33:                                               ; preds = %26
  %34 = getelementptr inbounds nuw i8, ptr %32, i64 40
  %35 = load ptr, ptr %34, align 8
  %.not5.i.i.i = icmp eq ptr %35, null
  br i1 %.not5.i.i.i, label %nvme_publish_to_cmd_link.exit, label %36

36:                                               ; preds = %33
  %37 = getelementptr inbounds nuw i8, ptr %35, i64 28
  %38 = load i32, ptr %37, align 4
  %39 = or i32 %38, 2
  store i32 %39, ptr %37, align 4
  br label %nvme_publish_to_cmd_link.exit

nvme_publish_to_cmd_link.exit:                    ; preds = %26, %33, %36
  %40 = load i32, ptr @hf_nvmeof_cmd_latency, align 4
  call void @llvm.lifetime.start.p0(i64 16, ptr nonnull %6) #10
  %41 = getelementptr inbounds nuw i8, ptr %3, i64 96
  %42 = getelementptr inbounds nuw i8, ptr %3, i64 80
  call void @nstime_delta(ptr noundef nonnull %6, ptr noundef nonnull %41, ptr noundef nonnull %42)
  %43 = call double @nstime_to_msec(ptr noundef nonnull %6)
  %44 = call ptr (ptr, i32, ptr, i32, i32, double, ptr, ...) @proto_tree_add_double_format_value(ptr noundef %29, i32 noundef %40, ptr noundef null, i32 noundef 0, i32 noundef 0, double noundef %43, ptr noundef nonnull @.str.2, double noundef %43)
  %.not.i.i = icmp eq ptr %44, null
  br i1 %.not.i.i, label %nvme_publish_cmd_latency.exit, label %45

45:                                               ; preds = %nvme_publish_to_cmd_link.exit
  %46 = getelementptr inbounds nuw i8, ptr %44, i64 40
  %47 = load ptr, ptr %46, align 8
  %.not5.i.i = icmp eq ptr %47, null
  br i1 %.not5.i.i, label %nvme_publish_cmd_latency.exit, label %48

48:                                               ; preds = %45
  %49 = getelementptr inbounds nuw i8, ptr %47, i64 28
  %50 = load i32, ptr %49, align 4
  %51 = or i32 %50, 2
  store i32 %51, ptr %49, align 4
  br label %nvme_publish_cmd_latency.exit

nvme_publish_cmd_latency.exit:                    ; preds = %nvme_publish_to_cmd_link.exit, %45, %48
  call void @llvm.lifetime.end.p0(i64 16, ptr nonnull %6) #10
  %52 = load i8, ptr %7, align 2
  switch i8 %52, label %68 [
    i8 1, label %53
    i8 4, label %62
    i8 0, label %65
  ]

53:                                               ; preds = %nvme_publish_cmd_latency.exit
  %54 = load i32, ptr @hf_nvmeof_cqe_connect_cntlid, align 4
  %55 = call ptr @proto_tree_add_item(ptr noundef %29, i32 noundef %54, ptr noundef %0, i32 noundef %4, i32 noundef 2, i32 noundef -2147483648)
  %56 = load i32, ptr @hf_nvmeof_cqe_connect_authreq, align 4
  %57 = add i32 %4, 2
  %58 = call ptr @proto_tree_add_item(ptr noundef %29, i32 noundef %56, ptr noundef %0, i32 noundef %57, i32 noundef 2, i32 noundef -2147483648)
  %59 = load i32, ptr @hf_nvmeof_cqe_connect_rsvd, align 4
  %60 = add i32 %4, 4
  %61 = call ptr @proto_tree_add_item(ptr noundef %29, i32 noundef %59, ptr noundef %0, i32 noundef %60, i32 noundef 4, i32 noundef 0)
  br label %dissect_nvmeof_cqe_status_8B.exit

62:                                               ; preds = %nvme_publish_cmd_latency.exit
  %63 = getelementptr i8, ptr %3, i64 120
  %.val.i = load i8, ptr %63, align 8
  %64 = zext i8 %.val.i to i32
  call fastcc void @dissect_nvmeof_fabric_prop_data(ptr noundef %29, ptr noundef %0, i32 noundef %4, i32 noundef %64, i8 noundef zeroext 1)
  br label %dissect_nvmeof_cqe_status_8B.exit

65:                                               ; preds = %nvme_publish_cmd_latency.exit
  %66 = load i32, ptr @hf_nvmeof_cqe_prop_set_rsvd, align 4
  %67 = call ptr @proto_tree_add_item(ptr noundef %29, i32 noundef %66, ptr noundef %0, i32 noundef %4, i32 noundef 8, i32 noundef 0)
  br label %dissect_nvmeof_cqe_status_8B.exit

68:                                               ; preds = %nvme_publish_cmd_latency.exit
  %69 = load i32, ptr @hf_nvmeof_cqe_sts, align 4
  %70 = call ptr @proto_tree_add_item(ptr noundef %29, i32 noundef %69, ptr noundef %0, i32 noundef %4, i32 noundef 8, i32 noundef -2147483648)
  br label %dissect_nvmeof_cqe_status_8B.exit

dissect_nvmeof_cqe_status_8B.exit:                ; preds = %53, %62, %65, %68
  call fastcc void @dissect_nvme_cqe_common(ptr noundef %0, ptr noundef %29, i32 noundef %4, i1 noundef zeroext true)
  ret void
}